; Function Attrs: nounwind uwtable
define internal fastcc ptr @llvm_debug_errunion_type(ptr nocapture noundef readonly %0, ptr nocapture noundef readonly %1) unnamed_addr #0 {
  %3 = getelementptr inbounds i8, ptr %0, i64 304
  %4 = load ptr, ptr %3, align 8
  %5 = load ptr, ptr @type_iptr, align 8
  %6 = getelementptr inbounds i8, ptr %5, i64 8
  %7 = load ptr, ptr %6, align 8
  %8 = getelementptr inbounds i8, ptr %0, i64 328
  %9 = load ptr, ptr %8, align 8
  %10 = tail call fastcc ptr @llvm_get_debug_type_internal(ptr noundef %0, ptr noundef %7, ptr noundef %9)
  %11 = getelementptr inbounds i8, ptr %1, i64 16
  %12 = load ptr, ptr %11, align 8
  %13 = tail call i64 @strlen(ptr noundef nonnull dereferenceable(1) %12) #9
  %14 = tail call ptr @LLVMDIBuilderCreateTypedef(ptr noundef %4, ptr noundef %10, ptr noundef %12, i64 noundef %13, ptr noundef null, i32 noundef 0, ptr noundef null, i32 noundef 0) #8
  ret ptr %14
}